target datalayout = "e-m:e-p270:32:32-p271:32:32-p272:64:64-i64:64-i128:128-f80:128-n8:16:32:64-S128"
target triple = "x86_64-unknown-linux-gnu"

%"class.cvc5::internal::NodeTemplate" = type { ptr }
%"class.cvc5::internal::NodeTemplate.504" = type { ptr }

; Function Attrs: mustprogress nounwind uwtable
define linkonce_odr hidden void @_ZN4cvc58internal12NodeTemplateILb0EED2Ev(ptr noundef nonnull align 8 dereferenceable(8) %this) unnamed_addr #5 comdat align 2 {
entry:
  %this.addr = alloca ptr, align 8
  store ptr %this, ptr %this.addr, align 8
  ret void
}

; Function Attrs: mustprogress nounwind uwtable
define linkonce_odr hidden void @_ZN4cvc58internal12NodeTemplateILb0EEC2ERKNS1_ILb1EEE(ptr noundef nonnull align 8 dereferenceable(8) %this, ptr noundef nonnull align 8 dereferenceable(8) %e) unnamed_addr #5 comdat align 2 {
entry:
  %this.addr = alloca ptr, align 8
  %e.addr = alloca ptr, align 8
  store ptr %this, ptr %this.addr, align 8
  store ptr %e, ptr %e.addr, align 8
  %this1 = load ptr, ptr %this.addr, align 8
  %0 = load ptr, ptr %e.addr, align 8
  %d_nv = getelementptr inbounds %"class.cvc5::internal::NodeTemplate", ptr %0, i32 0, i32 0
  %1 = load ptr, ptr %d_nv, align 8
  %d_nv2 = getelementptr inbounds %"class.cvc5::internal::NodeTemplate.504", ptr %this1, i32 0, i32 0
  store ptr %1, ptr %d_nv2, align 8
  ret void
}

; Function Attrs: mustprogress uwtable
define hidden noundef i64 @_ZN4cvc58internal6theory7strings10CoreSolver28getSufficientNonEmptyOverlapENS0_12NodeTemplateILb1EEES5_b(ptr noundef %c, ptr noundef %d, i1 noundef zeroext %isRev) #4 align 2 personality ptr @__gxx_personality_v0 {
entry:
  %c.indirect_addr = alloca ptr, align 8
  %d.indirect_addr = alloca ptr, align 8
  %isRev.addr = alloca i8, align 1
  %p = alloca i64, align 8
  %p2 = alloca i64, align 8
  %cLen = alloca i64, align 8
  %agg.tmp = alloca %"class.cvc5::internal::NodeTemplate.504", align 8
  %exn.slot = alloca ptr, align 8
  %ehselector.slot = alloca i32, align 4
  %c1 = alloca %"class.cvc5::internal::NodeTemplate", align 8
  %agg.tmp1 = alloca %"class.cvc5::internal::NodeTemplate.504", align 8
  %agg.tmp4 = alloca %"class.cvc5::internal::NodeTemplate.504", align 8
  %agg.tmp7 = alloca %"class.cvc5::internal::NodeTemplate.504", align 8
  %agg.tmp14 = alloca %"class.cvc5::internal::NodeTemplate.504", align 8
  %agg.tmp16 = alloca %"class.cvc5::internal::NodeTemplate.504", align 8
  %c125 = alloca %"class.cvc5::internal::NodeTemplate", align 8
  %agg.tmp26 = alloca %"class.cvc5::internal::NodeTemplate.504", align 8
  %agg.tmp30 = alloca %"class.cvc5::internal::NodeTemplate.504", align 8
  %agg.tmp33 = alloca %"class.cvc5::internal::NodeTemplate.504", align 8
  %agg.tmp42 = alloca %"class.cvc5::internal::NodeTemplate.504", align 8
  %agg.tmp44 = alloca %"class.cvc5::internal::NodeTemplate.504", align 8
  store ptr %c, ptr %c.indirect_addr, align 8
  store ptr %d, ptr %d.indirect_addr, align 8
  %frombool = zext i1 %isRev to i8
  store i8 %frombool, ptr %isRev.addr, align 1
  call void @_ZN4cvc58internal12NodeTemplateILb0EEC2ERKNS1_ILb1EEE(ptr noundef nonnull align 8 dereferenceable(8) %agg.tmp, ptr noundef nonnull align 8 dereferenceable(8) %c)
  %call = invoke noundef i64 @_ZN4cvc58internal6theory7strings4Word9getLengthENS0_12NodeTemplateILb0EEE(ptr noundef %agg.tmp)
          to label %invoke.cont unwind label %lpad

invoke.cont:                                      ; preds = %entry
  call void @_ZN4cvc58internal12NodeTemplateILb0EED2Ev(ptr noundef nonnull align 8 dereferenceable(8) %agg.tmp) #3
  store i64 %call, ptr %cLen, align 8
  %0 = load i8, ptr %isRev.addr, align 1
  %tobool = trunc i8 %0 to i1
  br i1 %tobool, label %if.then, label %if.else

if.then:                                          ; preds = %invoke.cont
  call void @_ZN4cvc58internal12NodeTemplateILb0EEC2ERKNS1_ILb1EEE(ptr noundef nonnull align 8 dereferenceable(8) %agg.tmp1, ptr noundef nonnull align 8 dereferenceable(8) %c)
  %1 = load i64, ptr %cLen, align 8
  %sub = sub i64 %1, 1
  invoke void @_ZN4cvc58internal6theory7strings4Word6prefixENS0_12NodeTemplateILb0EEEm(ptr sret(%"class.cvc5::internal::NodeTemplate") align 8 %c1, ptr noundef %agg.tmp1, i64 noundef %sub)
          to label %invoke.cont3 unwind label %lpad2

invoke.cont3:                                     ; preds = %if.then
  call void @_ZN4cvc58internal12NodeTemplateILb0EED2Ev(ptr noundef nonnull align 8 dereferenceable(8) %agg.tmp1) #3
  %2 = load i64, ptr %cLen, align 8
  invoke void @_ZN4cvc58internal12NodeTemplateILb0EEC2ERKNS1_ILb1EEE(ptr noundef nonnull align 8 dereferenceable(8) %agg.tmp4, ptr noundef nonnull align 8 dereferenceable(8) %c1)
          to label %invoke.cont6 unwind label %lpad5

invoke.cont6:                                     ; preds = %invoke.cont3
  invoke void @_ZN4cvc58internal12NodeTemplateILb0EEC2ERKNS1_ILb1EEE(ptr noundef nonnull align 8 dereferenceable(8) %agg.tmp7, ptr noundef nonnull align 8 dereferenceable(8) %d)
          to label %invoke.cont9 unwind label %lpad8

invoke.cont9:                                     ; preds = %invoke.cont6
  %call12 = invoke noundef i64 @_ZN4cvc58internal6theory7strings4Word8roverlapENS0_12NodeTemplateILb0EEES5_(ptr noundef %agg.tmp4, ptr noundef %agg.tmp7)
          to label %invoke.cont11 unwind label %lpad10

invoke.cont11:                                    ; preds = %invoke.cont9
  %sub13 = sub i64 %2, %call12
  store i64 %sub13, ptr %p, align 8
  call void @_ZN4cvc58internal12NodeTemplateILb0EED2Ev(ptr noundef nonnull align 8 dereferenceable(8) %agg.tmp7) #3
  call void @_ZN4cvc58internal12NodeTemplateILb0EED2Ev(ptr noundef nonnull align 8 dereferenceable(8) %agg.tmp4) #3
  invoke void @_ZN4cvc58internal12NodeTemplateILb0EEC2ERKNS1_ILb1EEE(ptr noundef nonnull align 8 dereferenceable(8) %agg.tmp14, ptr noundef nonnull align 8 dereferenceable(8) %c1)
          to label %invoke.cont15 unwind label %lpad5

invoke.cont15:                                    ; preds = %invoke.cont11
  invoke void @_ZN4cvc58internal12NodeTemplateILb0EEC2ERKNS1_ILb1EEE(ptr noundef nonnull align 8 dereferenceable(8) %agg.tmp16, ptr noundef nonnull align 8 dereferenceable(8) %d)
          to label %invoke.cont18 unwind label %lpad17

invoke.cont18:                                    ; preds = %invoke.cont15
  %call21 = invoke noundef i64 @_ZN4cvc58internal6theory7strings4Word5rfindENS0_12NodeTemplateILb0EEES5_m(ptr noundef %agg.tmp14, ptr noundef %agg.tmp16, i64 noundef 0)
          to label %invoke.cont20 unwind label %lpad19

invoke.cont20:                                    ; preds = %invoke.cont18
  store i64 %call21, ptr %p2, align 8
  call void @_ZN4cvc58internal12NodeTemplateILb0EED2Ev(ptr noundef nonnull align 8 dereferenceable(8) %agg.tmp16) #3
  call void @_ZN4cvc58internal12NodeTemplateILb0EED2Ev(ptr noundef nonnull align 8 dereferenceable(8) %agg.tmp14) #3
  call void @_ZN4cvc58internal12NodeTemplateILb1EED2Ev(ptr noundef nonnull align 8 dereferenceable(8) %c1) #3
  br label %if.end

lpad:                                             ; preds = %entry
  %3 = landingpad { ptr, i32 }
          cleanup
  %4 = extractvalue { ptr, i32 } %3, 0
  store ptr %4, ptr %exn.slot, align 8
  %5 = extractvalue { ptr, i32 } %3, 1
  store i32 %5, ptr %ehselector.slot, align 4
  call void @_ZN4cvc58internal12NodeTemplateILb0EED2Ev(ptr noundef nonnull align 8 dereferenceable(8) %agg.tmp) #3
  br label %eh.resume

lpad2:                                            ; preds = %if.then
  %6 = landingpad { ptr, i32 }
          cleanup
  %7 = extractvalue { ptr, i32 } %6, 0
  store ptr %7, ptr %exn.slot, align 8
  %8 = extractvalue { ptr, i32 } %6, 1
  store i32 %8, ptr %ehselector.slot, align 4
  call void @_ZN4cvc58internal12NodeTemplateILb0EED2Ev(ptr noundef nonnull align 8 dereferenceable(8) %agg.tmp1) #3
  br label %eh.resume

lpad5:                                            ; preds = %invoke.cont11, %invoke.cont3
  %9 = landingpad { ptr, i32 }
          cleanup
  %10 = extractvalue { ptr, i32 } %9, 0
  store ptr %10, ptr %exn.slot, align 8
  %11 = extractvalue { ptr, i32 } %9, 1
  store i32 %11, ptr %ehselector.slot, align 4
  br label %ehcleanup24

lpad8:                                            ; preds = %invoke.cont6
  %12 = landingpad { ptr, i32 }
          cleanup
  %13 = extractvalue { ptr, i32 } %12, 0
  store ptr %13, ptr %exn.slot, align 8
  %14 = extractvalue { ptr, i32 } %12, 1
  store i32 %14, ptr %ehselector.slot, align 4
  br label %ehcleanup

lpad10:                                           ; preds = %invoke.cont9
  %15 = landingpad { ptr, i32 }
          cleanup
  %16 = extractvalue { ptr, i32 } %15, 0
  store ptr %16, ptr %exn.slot, align 8
  %17 = extractvalue { ptr, i32 } %15, 1
  store i32 %17, ptr %ehselector.slot, align 4
  call void @_ZN4cvc58internal12NodeTemplateILb0EED2Ev(ptr noundef nonnull align 8 dereferenceable(8) %agg.tmp7) #3
  br label %ehcleanup

ehcleanup:                                        ; preds = %lpad10, %lpad8
  call void @_ZN4cvc58internal12NodeTemplateILb0EED2Ev(ptr noundef nonnull align 8 dereferenceable(8) %agg.tmp4) #3
  br label %ehcleanup24

lpad17:                                           ; preds = %invoke.cont15
  %18 = landingpad { ptr, i32 }
          cleanup
  %19 = extractvalue { ptr, i32 } %18, 0
  store ptr %19, ptr %exn.slot, align 8
  %20 = extractvalue { ptr, i32 } %18, 1
  store i32 %20, ptr %ehselector.slot, align 4
  br label %ehcleanup23

lpad19:                                           ; preds = %invoke.cont18
  %21 = landingpad { ptr, i32 }
          cleanup
  %22 = extractvalue { ptr, i32 } %21, 0
  store ptr %22, ptr %exn.slot, align 8
  %23 = extractvalue { ptr, i32 } %21, 1
  store i32 %23, ptr %ehselector.slot, align 4
  call void @_ZN4cvc58internal12NodeTemplateILb0EED2Ev(ptr noundef nonnull align 8 dereferenceable(8) %agg.tmp16) #3
  br label %ehcleanup23

ehcleanup23:                                      ; preds = %lpad19, %lpad17
  call void @_ZN4cvc58internal12NodeTemplateILb0EED2Ev(ptr noundef nonnull align 8 dereferenceable(8) %agg.tmp14) #3
  br label %ehcleanup24

ehcleanup24:                                      ; preds = %ehcleanup23, %ehcleanup, %lpad5
  call void @_ZN4cvc58internal12NodeTemplateILb1EED2Ev(ptr noundef nonnull align 8 dereferenceable(8) %c1) #3
  br label %eh.resume

if.else:                                          ; preds = %invoke.cont
  call void @_ZN4cvc58internal12NodeTemplateILb0EEC2ERKNS1_ILb1EEE(ptr noundef nonnull align 8 dereferenceable(8) %agg.tmp26, ptr noundef nonnull align 8 dereferenceable(8) %c)
  invoke void @_ZN4cvc58internal6theory7strings4Word6substrENS0_12NodeTemplateILb0EEEm(ptr sret(%"class.cvc5::internal::NodeTemplate") align 8 %c125, ptr noundef %agg.tmp26, i64 noundef 1)
          to label %invoke.cont28 unwind label %lpad27

invoke.cont28:                                    ; preds = %if.else
  call void @_ZN4cvc58internal12NodeTemplateILb0EED2Ev(ptr noundef nonnull align 8 dereferenceable(8) %agg.tmp26) #3
  %24 = load i64, ptr %cLen, align 8
  invoke void @_ZN4cvc58internal12NodeTemplateILb0EEC2ERKNS1_ILb1EEE(ptr noundef nonnull align 8 dereferenceable(8) %agg.tmp30, ptr noundef nonnull align 8 dereferenceable(8) %c125)
          to label %invoke.cont32 unwind label %lpad31

invoke.cont32:                                    ; preds = %invoke.cont28
  invoke void @_ZN4cvc58internal12NodeTemplateILb0EEC2ERKNS1_ILb1EEE(ptr noundef nonnull align 8 dereferenceable(8) %agg.tmp33, ptr noundef nonnull align 8 dereferenceable(8) %d)
          to label %invoke.cont35 unwind label %lpad34

invoke.cont35:                                    ; preds = %invoke.cont32
  %call38 = invoke noundef i64 @_ZN4cvc58internal6theory7strings4Word7overlapENS0_12NodeTemplateILb0EEES5_(ptr noundef %agg.tmp30, ptr noundef %agg.tmp33)
          to label %invoke.cont37 unwind label %lpad36

invoke.cont37:                                    ; preds = %invoke.cont35
  %sub39 = sub i64 %24, %call38
  store i64 %sub39, ptr %p, align 8
  call void @_ZN4cvc58internal12NodeTemplateILb0EED2Ev(ptr noundef nonnull align 8 dereferenceable(8) %agg.tmp33) #3
  call void @_ZN4cvc58internal12NodeTemplateILb0EED2Ev(ptr noundef nonnull align 8 dereferenceable(8) %agg.tmp30) #3
  invoke void @_ZN4cvc58internal12NodeTemplateILb0EEC2ERKNS1_ILb1EEE(ptr noundef nonnull align 8 dereferenceable(8) %agg.tmp42, ptr noundef nonnull align 8 dereferenceable(8) %c125)
          to label %invoke.cont43 unwind label %lpad31

invoke.cont43:                                    ; preds = %invoke.cont37
  invoke void @_ZN4cvc58internal12NodeTemplateILb0EEC2ERKNS1_ILb1EEE(ptr noundef nonnull align 8 dereferenceable(8) %agg.tmp44, ptr noundef nonnull align 8 dereferenceable(8) %d)
          to label %invoke.cont46 unwind label %lpad45

invoke.cont46:                                    ; preds = %invoke.cont43
  %call49 = invoke noundef i64 @_ZN4cvc58internal6theory7strings4Word4findENS0_12NodeTemplateILb0EEES5_m(ptr noundef %agg.tmp42, ptr noundef %agg.tmp44, i64 noundef 0)
          to label %invoke.cont48 unwind label %lpad47

invoke.cont48:                                    ; preds = %invoke.cont46
  store i64 %call49, ptr %p2, align 8
  call void @_ZN4cvc58internal12NodeTemplateILb0EED2Ev(ptr noundef nonnull align 8 dereferenceable(8) %agg.tmp44) #3
  call void @_ZN4cvc58internal12NodeTemplateILb0EED2Ev(ptr noundef nonnull align 8 dereferenceable(8) %agg.tmp42) #3
  call void @_ZN4cvc58internal12NodeTemplateILb1EED2Ev(ptr noundef nonnull align 8 dereferenceable(8) %c125) #3
  br label %if.end

lpad27:                                           ; preds = %if.else
  %25 = landingpad { ptr, i32 }
          cleanup
  %26 = extractvalue { ptr, i32 } %25, 0
  store ptr %26, ptr %exn.slot, align 8
  %27 = extractvalue { ptr, i32 } %25, 1
  store i32 %27, ptr %ehselector.slot, align 4
  call void @_ZN4cvc58internal12NodeTemplateILb0EED2Ev(ptr noundef nonnull align 8 dereferenceable(8) %agg.tmp26) #3
  br label %eh.resume

lpad31:                                           ; preds = %invoke.cont37, %invoke.cont28
  %28 = landingpad { ptr, i32 }
          cleanup
  %29 = extractvalue { ptr, i32 } %28, 0
  store ptr %29, ptr %exn.slot, align 8
  %30 = extractvalue { ptr, i32 } %28, 1
  store i32 %30, ptr %ehselector.slot, align 4
  br label %ehcleanup52

lpad34:                                           ; preds = %invoke.cont32
  %31 = landingpad { ptr, i32 }
          cleanup
  %32 = extractvalue { ptr, i32 } %31, 0
  store ptr %32, ptr %exn.slot, align 8
  %33 = extractvalue { ptr, i32 } %31, 1
  store i32 %33, ptr %ehselector.slot, align 4
  br label %ehcleanup41

lpad36:                                           ; preds = %invoke.cont35
  %34 = landingpad { ptr, i32 }
          cleanup
  %35 = extractvalue { ptr, i32 } %34, 0
  store ptr %35, ptr %exn.slot, align 8
  %36 = extractvalue { ptr, i32 } %34, 1
  store i32 %36, ptr %ehselector.slot, align 4
  call void @_ZN4cvc58internal12NodeTemplateILb0EED2Ev(ptr noundef nonnull align 8 dereferenceable(8) %agg.tmp33) #3
  br label %ehcleanup41

ehcleanup41:                                      ; preds = %lpad36, %lpad34
  call void @_ZN4cvc58internal12NodeTemplateILb0EED2Ev(ptr noundef nonnull align 8 dereferenceable(8) %agg.tmp30) #3
  br label %ehcleanup52

lpad45:                                           ; preds = %invoke.cont43
  %37 = landingpad { ptr, i32 }
          cleanup
  %38 = extractvalue { ptr, i32 } %37, 0
  store ptr %38, ptr %exn.slot, align 8
  %39 = extractvalue { ptr, i32 } %37, 1
  store i32 %39, ptr %ehselector.slot, align 4
  br label %ehcleanup51

lpad47:                                           ; preds = %invoke.cont46
  %40 = landingpad { ptr, i32 }
          cleanup
  %41 = extractvalue { ptr, i32 } %40, 0
  store ptr %41, ptr %exn.slot, align 8
  %42 = extractvalue { ptr, i32 } %40, 1
  store i32 %42, ptr %ehselector.slot, align 4
  call void @_ZN4cvc58internal12NodeTemplateILb0EED2Ev(ptr noundef nonnull align 8 dereferenceable(8) %agg.tmp44) #3
  br label %ehcleanup51

ehcleanup51:                                      ; preds = %lpad47, %lpad45
  call void @_ZN4cvc58internal12NodeTemplateILb0EED2Ev(ptr noundef nonnull align 8 dereferenceable(8) %agg.tmp42) #3
  br label %ehcleanup52

ehcleanup52:                                      ; preds = %ehcleanup51, %ehcleanup41, %lpad31
  call void @_ZN4cvc58internal12NodeTemplateILb1EED2Ev(ptr noundef nonnull align 8 dereferenceable(8) %c125) #3
  br label %eh.resume

if.end:                                           ; preds = %invoke.cont48, %invoke.cont20
  %43 = load i64, ptr %p2, align 8
  %cmp = icmp eq i64 %43, -1
  br i1 %cmp, label %cond.true, label %cond.false

cond.true:                                        ; preds = %if.end
  %44 = load i64, ptr %p, align 8
  br label %cond.end57

cond.false:                                       ; preds = %if.end
  %45 = load i64, ptr %p, align 8
  %46 = load i64, ptr %p2, align 8
  %add = add i64 %46, 1
  %cmp53 = icmp ugt i64 %45, %add
  br i1 %cmp53, label %cond.true54, label %cond.false56

cond.true54:                                      ; preds = %cond.false
  %47 = load i64, ptr %p2, align 8
  %add55 = add i64 %47, 1
  br label %cond.end

cond.false56:                                     ; preds = %cond.false
  %48 = load i64, ptr %p, align 8
  br label %cond.end

cond.end:                                         ; preds = %cond.false56, %cond.true54
  %cond = phi i64 [ %add55, %cond.true54 ], [ %48, %cond.false56 ]
  br label %cond.end57

cond.end57:                                       ; preds = %cond.end, %cond.true
  %cond58 = phi i64 [ %44, %cond.true ], [ %cond, %cond.end ]
  ret i64 %cond58

eh.resume:                                        ; preds = %ehcleanup52, %lpad27, %ehcleanup24, %lpad2, %lpad
  %exn = load ptr, ptr %exn.slot, align 8
  %sel = load i32, ptr %ehselector.slot, align 4
  %lpad.val = insertvalue { ptr, i32 } poison, ptr %exn, 0
  %lpad.val59 = insertvalue { ptr, i32 } %lpad.val, i32 %sel, 1
  resume { ptr, i32 } %lpad.val59
}