; Function Attrs: mustprogress uwtable
define hidden noundef i64 @_ZN4cvc58internal6theory7strings10CoreSolver28getSufficientNonEmptyOverlapENS0_12NodeTemplateILb1EEES5_b(ptr nocapture noundef readonly %c, ptr nocapture noundef readonly %d, i1 noundef zeroext %isRev) local_unnamed_addr #3 align 2 personality ptr @__gxx_personality_v0 {
entry:
  %agg.tmp = alloca %"class.cvc5::internal::NodeTemplate.504", align 8
  %c1 = alloca %"class.cvc5::internal::NodeTemplate", align 8
  %agg.tmp1 = alloca %"class.cvc5::internal::NodeTemplate.504", align 8
  %agg.tmp4 = alloca %"class.cvc5::internal::NodeTemplate.504", align 8
  %agg.tmp7 = alloca %"class.cvc5::internal::NodeTemplate.504", align 8
  %agg.tmp14 = alloca %"class.cvc5::internal::NodeTemplate.504", align 8
  %agg.tmp16 = alloca %"class.cvc5::internal::NodeTemplate.504", align 8
  %c125 = alloca %"class.cvc5::internal::NodeTemplate", align 8
  %agg.tmp26 = alloca %"class.cvc5::internal::NodeTemplate.504", align 8
  %agg.tmp30 = alloca %"class.cvc5::internal::NodeTemplate.504", align 8
  %agg.tmp33 = alloca %"class.cvc5::internal::NodeTemplate.504", align 8
  %agg.tmp42 = alloca %"class.cvc5::internal::NodeTemplate.504", align 8
  %agg.tmp44 = alloca %"class.cvc5::internal::NodeTemplate.504", align 8
  %0 = load ptr, ptr %c, align 8
  store ptr %0, ptr %agg.tmp, align 8
  %call = call noundef i64 @_ZN4cvc58internal6theory7strings4Word9getLengthENS0_12NodeTemplateILb0EEE(ptr noundef nonnull %agg.tmp)
  %1 = load ptr, ptr %c, align 8
  br i1 %isRev, label %if.then, label %if.else

if.then:                                          ; preds = %entry
  store ptr %1, ptr %agg.tmp1, align 8
  %sub = add i64 %call, -1
  call void @_ZN4cvc58internal6theory7strings4Word6prefixENS0_12NodeTemplateILb0EEEm(ptr nonnull sret(%"class.cvc5::internal::NodeTemplate") align 8 %c1, ptr noundef nonnull %agg.tmp1, i64 noundef %sub)
  %2 = load ptr, ptr %c1, align 8
  store ptr %2, ptr %agg.tmp4, align 8
  %3 = load ptr, ptr %d, align 8
  store ptr %3, ptr %agg.tmp7, align 8
  %call12 = invoke noundef i64 @_ZN4cvc58internal6theory7strings4Word8roverlapENS0_12NodeTemplateILb0EEES5_(ptr noundef nonnull %agg.tmp4, ptr noundef nonnull %agg.tmp7)
          to label %invoke.cont11 unwind label %lpad10

invoke.cont11:                                    ; preds = %if.then
  %4 = load ptr, ptr %c1, align 8
  store ptr %4, ptr %agg.tmp14, align 8
  %5 = load ptr, ptr %d, align 8
  store ptr %5, ptr %agg.tmp16, align 8
  %call21 = invoke noundef i64 @_ZN4cvc58internal6theory7strings4Word5rfindENS0_12NodeTemplateILb0EEES5_m(ptr noundef nonnull %agg.tmp14, ptr noundef nonnull %agg.tmp16, i64 noundef 0)
          to label %invoke.cont20 unwind label %lpad19

invoke.cont20:                                    ; preds = %invoke.cont11
  %6 = load ptr, ptr %c1, align 8
  %bf.load.i.i = load i64, ptr %6, align 8
  %7 = and i64 %bf.load.i.i, 1152920405095219200
  %cmp.not.i.i = icmp eq i64 %7, 1152920405095219200
  br i1 %cmp.not.i.i, label %if.end, label %if.then.i.i

if.then.i.i:                                      ; preds = %invoke.cont20
  %bf.value.i.i = add i64 %bf.load.i.i, 1152920405095219200
  %bf.shl.i.i = and i64 %bf.value.i.i, 1152920405095219200
  %bf.clear7.i.i = and i64 %bf.load.i.i, -1152920405095219201
  %bf.set.i.i = or disjoint i64 %bf.shl.i.i, %bf.clear7.i.i
  store i64 %bf.set.i.i, ptr %6, align 8
  %cmp12.i.i = icmp eq i64 %bf.shl.i.i, 0
  br i1 %cmp12.i.i, label %if.then13.i.i, label %if.end

if.then13.i.i:                                    ; preds = %if.then.i.i
  invoke void @_ZN4cvc58internal4expr9NodeValue15markForDeletionEv(ptr noundef nonnull align 8 dereferenceable(16) %6)
          to label %if.end unwind label %terminate.lpad.i

terminate.lpad.i:                                 ; preds = %if.then13.i.i
  %8 = landingpad { ptr, i32 }
          catch ptr null
  %9 = extractvalue { ptr, i32 } %8, 0
  call void @__clang_call_terminate(ptr %9) #23
  unreachable

lpad10:                                           ; preds = %if.then
  %10 = landingpad { ptr, i32 }
          cleanup
  br label %eh.resume

lpad19:                                           ; preds = %invoke.cont11
  %11 = landingpad { ptr, i32 }
          cleanup
  br label %eh.resume

if.else:                                          ; preds = %entry
  store ptr %1, ptr %agg.tmp26, align 8
  call void @_ZN4cvc58internal6theory7strings4Word6substrENS0_12NodeTemplateILb0EEEm(ptr nonnull sret(%"class.cvc5::internal::NodeTemplate") align 8 %c125, ptr noundef nonnull %agg.tmp26, i64 noundef 1)
  %12 = load ptr, ptr %c125, align 8
  store ptr %12, ptr %agg.tmp30, align 8
  %13 = load ptr, ptr %d, align 8
  store ptr %13, ptr %agg.tmp33, align 8
  %call38 = invoke noundef i64 @_ZN4cvc58internal6theory7strings4Word7overlapENS0_12NodeTemplateILb0EEES5_(ptr noundef nonnull %agg.tmp30, ptr noundef nonnull %agg.tmp33)
          to label %invoke.cont37 unwind label %lpad36

invoke.cont37:                                    ; preds = %if.else
  %14 = load ptr, ptr %c125, align 8
  store ptr %14, ptr %agg.tmp42, align 8
  %15 = load ptr, ptr %d, align 8
  store ptr %15, ptr %agg.tmp44, align 8
  %call49 = invoke noundef i64 @_ZN4cvc58internal6theory7strings4Word4findENS0_12NodeTemplateILb0EEES5_m(ptr noundef nonnull %agg.tmp42, ptr noundef nonnull %agg.tmp44, i64 noundef 0)
          to label %invoke.cont48 unwind label %lpad47

invoke.cont48:                                    ; preds = %invoke.cont37
  %16 = load ptr, ptr %c125, align 8
  %bf.load.i.i11 = load i64, ptr %16, align 8
  %17 = and i64 %bf.load.i.i11, 1152920405095219200
  %cmp.not.i.i12 = icmp eq i64 %17, 1152920405095219200
  br i1 %cmp.not.i.i12, label %if.end, label %if.then.i.i13

if.then.i.i13:                                    ; preds = %invoke.cont48
  %bf.value.i.i14 = add i64 %bf.load.i.i11, 1152920405095219200
  %bf.shl.i.i15 = and i64 %bf.value.i.i14, 1152920405095219200
  %bf.clear7.i.i16 = and i64 %bf.load.i.i11, -1152920405095219201
  %bf.set.i.i17 = or disjoint i64 %bf.shl.i.i15, %bf.clear7.i.i16
  store i64 %bf.set.i.i17, ptr %16, align 8
  %cmp12.i.i18 = icmp eq i64 %bf.shl.i.i15, 0
  br i1 %cmp12.i.i18, label %if.then13.i.i19, label %if.end

if.then13.i.i19:                                  ; preds = %if.then.i.i13
  invoke void @_ZN4cvc58internal4expr9NodeValue15markForDeletionEv(ptr noundef nonnull align 8 dereferenceable(16) %16)
          to label %if.end unwind label %terminate.lpad.i20

terminate.lpad.i20:                               ; preds = %if.then13.i.i19
  %18 = landingpad { ptr, i32 }
          catch ptr null
  %19 = extractvalue { ptr, i32 } %18, 0
  call void @__clang_call_terminate(ptr %19) #23
  unreachable

lpad36:                                           ; preds = %if.else
  %20 = landingpad { ptr, i32 }
          cleanup
  br label %eh.resume

lpad47:                                           ; preds = %invoke.cont37
  %21 = landingpad { ptr, i32 }
          cleanup
  br label %eh.resume

if.end:                                           ; preds = %if.then13.i.i19, %if.then.i.i13, %invoke.cont48, %if.then13.i.i, %if.then.i.i, %invoke.cont20
  %p2.0 = phi i64 [ %call21, %invoke.cont20 ], [ %call21, %if.then.i.i ], [ %call21, %if.then13.i.i ], [ %call49, %invoke.cont48 ], [ %call49, %if.then.i.i13 ], [ %call49, %if.then13.i.i19 ]
  %call12.pn = phi i64 [ %call12, %invoke.cont20 ], [ %call12, %if.then.i.i ], [ %call12, %if.then13.i.i ], [ %call38, %invoke.cont48 ], [ %call38, %if.then.i.i13 ], [ %call38, %if.then13.i.i19 ]
  %p.0 = sub i64 %call, %call12.pn
  %cmp = icmp eq i64 %p2.0, -1
  %add = add nuw i64 %p2.0, 1
  %cond = call i64 @llvm.umin.i64(i64 %p.0, i64 %add)
  %cond58 = select i1 %cmp, i64 %p.0, i64 %cond
  ret i64 %cond58

eh.resume:                                        ; preds = %lpad36, %lpad47, %lpad10, %lpad19
  %c125.sink = phi ptr [ %c1, %lpad19 ], [ %c1, %lpad10 ], [ %c125, %lpad47 ], [ %c125, %lpad36 ]
  %.pn8.pn = phi { ptr, i32 } [ %11, %lpad19 ], [ %10, %lpad10 ], [ %21, %lpad47 ], [ %20, %lpad36 ]
  call void @_ZN4cvc58internal12NodeTemplateILb1EED2Ev(ptr noundef nonnull align 8 dereferenceable(8) %c125.sink) #21
  resume { ptr, i32 } %.pn8.pn
}